target datalayout = "e-m:e-p270:32:32-p271:32:32-p272:64:64-i64:64-i128:128-f80:128-n8:16:32:64-S128"
target triple = "x86_64-pc-linux-gnu"

%struct.asciicompat_encoding_t = type { ptr, ptr }
%struct.st_table = type { i8, i8, i8, i32, ptr, i64, ptr, i64, i64, ptr }

@transcoder_table = internal global ptr null, align 8

; Function Attrs: nounwind sspstrong uwtable
define dso_local ptr @rb_econv_asciicompat_encoding(ptr noundef %0) #0 {
  %2 = alloca ptr, align 8
  %3 = alloca ptr, align 8
  %4 = alloca i64, align 8
  %5 = alloca ptr, align 8
  %6 = alloca %struct.asciicompat_encoding_t, align 8
  %7 = alloca i32, align 4
  store ptr %0, ptr %3, align 8, !tbaa !21
  call void @llvm.lifetime.start.p0(i64 8, ptr %4) #25
  call void @llvm.lifetime.start.p0(i64 8, ptr %5) #25
  call void @llvm.lifetime.start.p0(i64 16, ptr %6) #25
  %8 = load ptr, ptr @transcoder_table, align 8, !tbaa !7
  %9 = load ptr, ptr %3, align 8, !tbaa !21
  %10 = ptrtoint ptr %9 to i64
  %11 = call i32 @rb_st_lookup(ptr noundef %8, i64 noundef %10, ptr noundef %4)
  %12 = icmp ne i32 %11, 0
  br i1 %12, label %14, label %13

13:                                               ; preds = %1
  store ptr null, ptr %2, align 8
  store i32 1, ptr %7, align 4
  br label %31

14:                                               ; preds = %1
  %15 = load i64, ptr %4, align 8, !tbaa !12
  %16 = inttoptr i64 %15 to ptr
  store ptr %16, ptr %5, align 8, !tbaa !7
  %17 = load ptr, ptr %5, align 8, !tbaa !7
  %18 = getelementptr inbounds nuw %struct.st_table, ptr %17, i32 0, i32 5
  %19 = load i64, ptr %18, align 8, !tbaa !96
  %20 = icmp ne i64 %19, 1
  br i1 %20, label %21, label %22

21:                                               ; preds = %14
  store ptr null, ptr %2, align 8
  store i32 1, ptr %7, align 4
  br label %31

22:                                               ; preds = %14
  %23 = load ptr, ptr %3, align 8, !tbaa !21
  %24 = getelementptr inbounds nuw %struct.asciicompat_encoding_t, ptr %6, i32 0, i32 1
  store ptr %23, ptr %24, align 8, !tbaa !100
  %25 = getelementptr inbounds nuw %struct.asciicompat_encoding_t, ptr %6, i32 0, i32 0
  store ptr null, ptr %25, align 8, !tbaa !102
  %26 = load ptr, ptr %5, align 8, !tbaa !7
  %27 = ptrtoint ptr %6 to i64
  %28 = call i32 @rb_st_foreach(ptr noundef %26, ptr noundef @asciicompat_encoding_i, i64 noundef %27)
  %29 = getelementptr inbounds nuw %struct.asciicompat_encoding_t, ptr %6, i32 0, i32 0
  %30 = load ptr, ptr %29, align 8, !tbaa !102
  store ptr %30, ptr %2, align 8
  store i32 1, ptr %7, align 4
  br label %31

31:                                               ; preds = %22, %21, %13
  call void @llvm.lifetime.end.p0(i64 16, ptr %6) #25
  call void @llvm.lifetime.end.p0(i64 8, ptr %5) #25
  call void @llvm.lifetime.end.p0(i64 8, ptr %4) #25
  %32 = load ptr, ptr %2, align 8
  ret ptr %32
}