; Function Attrs: nounwind sspstrong uwtable
define dso_local ptr @rb_econv_asciicompat_encoding(ptr noundef %0) local_unnamed_addr #0 {
  %2 = alloca i64, align 8
  %3 = alloca %struct.asciicompat_encoding_t, align 8
  call void @llvm.lifetime.start.p0(i64 8, ptr nonnull %2) #22
  call void @llvm.lifetime.start.p0(i64 16, ptr nonnull %3) #22
  %4 = load ptr, ptr @transcoder_table, align 8, !tbaa !7
  %5 = ptrtoint ptr %0 to i64
  %6 = call i32 @rb_st_lookup(ptr noundef %4, i64 noundef %5, ptr noundef nonnull %2) #22
  %.not = icmp eq i32 %6, 0
  br i1 %.not, label %17, label %7

7:                                                ; preds = %1
  %8 = load i64, ptr %2, align 8, !tbaa !22
  %9 = inttoptr i64 %8 to ptr
  %10 = getelementptr inbounds nuw i8, ptr %9, i64 16
  %11 = load i64, ptr %10, align 8, !tbaa !102
  %.not5 = icmp eq i64 %11, 1
  br i1 %.not5, label %12, label %17

12:                                               ; preds = %7
  %13 = getelementptr inbounds nuw i8, ptr %3, i64 8
  store ptr %0, ptr %13, align 8, !tbaa !107
  store ptr null, ptr %3, align 8, !tbaa !109
  %14 = ptrtoint ptr %3 to i64
  %15 = call i32 @rb_st_foreach(ptr noundef nonnull %9, ptr noundef nonnull @asciicompat_encoding_i, i64 noundef %14) #22
  %16 = load ptr, ptr %3, align 8, !tbaa !109
  br label %17

17:                                               ; preds = %7, %1, %12
  %.0 = phi ptr [ %16, %12 ], [ null, %1 ], [ null, %7 ]
  call void @llvm.lifetime.end.p0(i64 16, ptr nonnull %3) #22
  call void @llvm.lifetime.end.p0(i64 8, ptr nonnull %2) #22
  ret ptr %.0
}